target datalayout = "e-m:e-p270:32:32-p271:32:32-p272:64:64-i64:64-i128:128-f80:128-n8:16:32:64-S128"
target triple = "x86_64-pc-linux-gnu"

%"class.o3dgc::DynamicVectorEncoder" = type <{ i64, i64, i64, i64, i64, ptr, ptr, i32, [4 x i8] }>

; Function Attrs: mustprogress uwtable
define hidden noundef i32 @_ZN5o3dgc20DynamicVectorEncoder8QuantizeEPKfmmmS2_S2_m(ptr noundef nonnull align 8 dereferenceable(60) %0, ptr noundef %1, i64 noundef %2, i64 noundef %3, i64 noundef %4, ptr noundef %5, ptr noundef %6, i64 noundef %7) #2 align 2 {
  %9 = alloca ptr, align 8
  %10 = alloca ptr, align 8
  %11 = alloca i64, align 8
  %12 = alloca i64, align 8
  %13 = alloca i64, align 8
  %14 = alloca ptr, align 8
  %15 = alloca ptr, align 8
  %16 = alloca i64, align 8
  %17 = alloca i64, align 8
  %18 = alloca float, align 4
  %19 = alloca float, align 4
  %20 = alloca i64, align 8
  %21 = alloca i32, align 4
  %22 = alloca i64, align 8
  store ptr %0, ptr %9, align 8
  store ptr %1, ptr %10, align 8
  store i64 %2, ptr %11, align 8
  store i64 %3, ptr %12, align 8
  store i64 %4, ptr %13, align 8
  store ptr %5, ptr %14, align 8
  store ptr %6, ptr %15, align 8
  store i64 %7, ptr %16, align 8
  %23 = load ptr, ptr %9, align 8
  call void @llvm.lifetime.start.p0(i64 8, ptr %17) #12
  %24 = load i64, ptr %11, align 8
  %25 = load i64, ptr %12, align 8
  %26 = mul i64 %24, %25
  store i64 %26, ptr %17, align 8
  call void @llvm.lifetime.start.p0(i64 4, ptr %18) #12
  %27 = getelementptr inbounds nuw %"class.o3dgc::DynamicVectorEncoder", ptr %23, i32 0, i32 2
  %28 = load i64, ptr %27, align 8
  %29 = load i64, ptr %17, align 8
  %30 = icmp ult i64 %28, %29
  br i1 %30, label %31, label %47

31:                                               ; preds = %8
  %32 = getelementptr inbounds nuw %"class.o3dgc::DynamicVectorEncoder", ptr %23, i32 0, i32 6
  %33 = load ptr, ptr %32, align 8
  %34 = icmp eq ptr %33, null
  br i1 %34, label %36, label %35

35:                                               ; preds = %31
  call void @_ZdaPv(ptr noundef %33) #11
  br label %36

36:                                               ; preds = %35, %31
  %37 = load i64, ptr %17, align 8
  %38 = getelementptr inbounds nuw %"class.o3dgc::DynamicVectorEncoder", ptr %23, i32 0, i32 2
  store i64 %37, ptr %38, align 8
  %39 = getelementptr inbounds nuw %"class.o3dgc::DynamicVectorEncoder", ptr %23, i32 0, i32 2
  %40 = load i64, ptr %39, align 8
  %41 = call { i64, i1 } @llvm.umul.with.overflow.i64(i64 %40, i64 8)
  %42 = extractvalue { i64, i1 } %41, 1
  %43 = extractvalue { i64, i1 } %41, 0
  %44 = select i1 %42, i64 -1, i64 %43
  %45 = call noalias noundef nonnull ptr @_Znam(i64 noundef %44) #13
  %46 = getelementptr inbounds nuw %"class.o3dgc::DynamicVectorEncoder", ptr %23, i32 0, i32 6
  store ptr %45, ptr %46, align 8
  br label %47

47:                                               ; preds = %36, %8
  call void @llvm.lifetime.start.p0(i64 4, ptr %19) #12
  call void @llvm.lifetime.start.p0(i64 8, ptr %20) #12
  store i64 0, ptr %20, align 8
  br label %48

48:                                               ; preds = %109, %47
  %49 = load i64, ptr %20, align 8
  %50 = load i64, ptr %12, align 8
  %51 = icmp ult i64 %49, %50
  br i1 %51, label %53, label %52

52:                                               ; preds = %48
  store i32 2, ptr %21, align 4
  call void @llvm.lifetime.end.p0(i64 8, ptr %20) #12
  br label %112

53:                                               ; preds = %48
  %54 = load ptr, ptr %15, align 8
  %55 = load i64, ptr %20, align 8
  %56 = getelementptr inbounds nuw float, ptr %54, i64 %55
  %57 = load float, ptr %56, align 4
  %58 = load ptr, ptr %14, align 8
  %59 = load i64, ptr %20, align 8
  %60 = getelementptr inbounds nuw float, ptr %58, i64 %59
  %61 = load float, ptr %60, align 4
  %62 = fsub float %57, %61
  store float %62, ptr %18, align 4
  %63 = load float, ptr %18, align 4
  %64 = fcmp ogt float %63, 0.000000e+00
  br i1 %64, label %65, label %73

65:                                               ; preds = %53
  %66 = load i64, ptr %16, align 8
  %67 = trunc i64 %66 to i32
  %68 = shl i32 1, %67
  %69 = sub nsw i32 %68, 1
  %70 = sitofp i32 %69 to float
  %71 = load float, ptr %18, align 4
  %72 = fdiv float %70, %71
  store float %72, ptr %19, align 4
  br label %74

73:                                               ; preds = %53
  store float 1.000000e+00, ptr %19, align 4
  br label %74

74:                                               ; preds = %73, %65
  call void @llvm.lifetime.start.p0(i64 8, ptr %22) #12
  store i64 0, ptr %22, align 8
  br label %75

75:                                               ; preds = %105, %74
  %76 = load i64, ptr %22, align 8
  %77 = load i64, ptr %11, align 8
  %78 = icmp ult i64 %76, %77
  br i1 %78, label %80, label %79

79:                                               ; preds = %75
  store i32 5, ptr %21, align 4
  call void @llvm.lifetime.end.p0(i64 8, ptr %22) #12
  br label %108

80:                                               ; preds = %75
  %81 = load ptr, ptr %10, align 8
  %82 = load i64, ptr %22, align 8
  %83 = load i64, ptr %13, align 8
  %84 = mul i64 %82, %83
  %85 = load i64, ptr %20, align 8
  %86 = add i64 %84, %85
  %87 = getelementptr inbounds nuw float, ptr %81, i64 %86
  %88 = load float, ptr %87, align 4
  %89 = load ptr, ptr %14, align 8
  %90 = load i64, ptr %20, align 8
  %91 = getelementptr inbounds nuw float, ptr %89, i64 %90
  %92 = load float, ptr %91, align 4
  %93 = fsub float %88, %92
  %94 = load float, ptr %19, align 4
  %95 = call float @llvm.fmuladd.f32(float %93, float %94, float 5.000000e-01)
  %96 = fptosi float %95 to i64
  %97 = getelementptr inbounds nuw %"class.o3dgc::DynamicVectorEncoder", ptr %23, i32 0, i32 6
  %98 = load ptr, ptr %97, align 8
  %99 = load i64, ptr %22, align 8
  %100 = load i64, ptr %20, align 8
  %101 = load i64, ptr %11, align 8
  %102 = mul i64 %100, %101
  %103 = add i64 %99, %102
  %104 = getelementptr inbounds nuw i64, ptr %98, i64 %103
  store i64 %96, ptr %104, align 8
  br label %105

105:                                              ; preds = %80
  %106 = load i64, ptr %22, align 8
  %107 = add i64 %106, 1
  store i64 %107, ptr %22, align 8
  br label %75, !llvm.loop !14

108:                                              ; preds = %79
  br label %109

109:                                              ; preds = %108
  %110 = load i64, ptr %20, align 8
  %111 = add i64 %110, 1
  store i64 %111, ptr %20, align 8
  br label %48, !llvm.loop !15

112:                                              ; preds = %52
  store i32 1, ptr %21, align 4
  call void @llvm.lifetime.end.p0(i64 4, ptr %19) #12
  call void @llvm.lifetime.end.p0(i64 4, ptr %18) #12
  call void @llvm.lifetime.end.p0(i64 8, ptr %17) #12
  ret i32 0
}